target datalayout = "e-m:e-p270:32:32-p271:32:32-p272:64:64-i64:64-i128:128-f80:128-n8:16:32:64-S128"
target triple = "x86_64-pc-linux-gnu"

%struct._connParams = type { ptr, ptr, ptr, ptr, i32, ptr }
%struct._restoreOptions = type { i32, i32, i32, i32, i32, i32, ptr, ptr, i32, i32, i32, i32, i32, i32, i32, i32, i32, i32, ptr, i32, i32, i32, ptr, i32, i32, ptr, i32, ptr, i32, i32, i32, i32, i32, %struct.SimpleStringList, %struct.SimpleStringList, %struct.SimpleStringList, %struct.SimpleStringList, %struct.SimpleStringList, %struct.SimpleStringList, i32, %struct._connParams, i32, i32, %struct.pg_compress_specification, i32, i8, i32, ptr, i32, i32, i32, i8, i8 }
%struct.SimpleStringList = type { ptr, ptr }
%struct.pg_compress_specification = type { i32, i32, i32, i32, i8, ptr }
%struct._archiveHandle = type { %struct.Archive, i32, ptr, ptr, i64, i64, i32, %struct.sqlparseInfo, i64, i32, ptr, i64, i64, i64, ptr, ptr, ptr, ptr, ptr, ptr, ptr, ptr, ptr, ptr, ptr, ptr, ptr, ptr, ptr, ptr, ptr, ptr, ptr, ptr, ptr, ptr, ptr, ptr, ptr, ptr, ptr, ptr, ptr, ptr, i32, i32, i8, i32, i8, i32, ptr, ptr, ptr, ptr, i32, i32, ptr, ptr, ptr, %struct.pg_compress_specification, i8, i32, i32, ptr, ptr, ptr, ptr, ptr, i32, ptr, i64, i64, i32, i32, i32, i32, ptr, ptr }
%struct.Archive = type { ptr, ptr, i32, ptr, i32, i8, i32, i32, i32, ptr, i32, i8, ptr, ptr, i8, i32, ptr }
%struct.sqlparseInfo = type { i32, i8, ptr }
%struct.PQExpBufferData = type { ptr, i64, i64 }

@.str.122 = private unnamed_addr constant [11 x i8] c"pg_catalog\00", align 1
@.str.148 = private unnamed_addr constant [6 x i8] c"%s;\0A\0A\00", align 1
@.str.264 = private unnamed_addr constant [21 x i8] c"SET search_path = %s\00", align 1
@.str.265 = private unnamed_addr constant [13 x i8] c", pg_catalog\00", align 1
@.str.266 = private unnamed_addr constant [40 x i8] c"could not set \22search_path\22 to \22%s\22: %s\00", align 1

; Function Attrs: nounwind uwtable
define internal i32 @RestoringToDB(ptr noundef %0) #0 {
  %2 = alloca ptr, align 8
  %3 = alloca ptr, align 8
  store ptr %0, ptr %2, align 8
  call void @llvm.lifetime.start.p0(i64 8, ptr %3) #11
  %4 = load ptr, ptr %2, align 8
  %5 = getelementptr inbounds nuw %struct._archiveHandle, ptr %4, i32 0, i32 0
  %6 = getelementptr inbounds nuw %struct.Archive, ptr %5, i32 0, i32 1
  %7 = load ptr, ptr %6, align 8
  store ptr %7, ptr %3, align 8
  %8 = load ptr, ptr %3, align 8
  %9 = icmp ne ptr %8, null
  br i1 %9, label %10, label %20

10:                                               ; preds = %1
  %11 = load ptr, ptr %3, align 8
  %12 = getelementptr inbounds nuw %struct._restoreOptions, ptr %11, i32 0, i32 39
  %13 = load i32, ptr %12, align 8
  %14 = icmp ne i32 %13, 0
  br i1 %14, label %15, label %20

15:                                               ; preds = %10
  %16 = load ptr, ptr %2, align 8
  %17 = getelementptr inbounds nuw %struct._archiveHandle, ptr %16, i32 0, i32 42
  %18 = load ptr, ptr %17, align 8
  %19 = icmp ne ptr %18, null
  br label %20

20:                                               ; preds = %15, %10, %1
  %21 = phi i1 [ false, %10 ], [ false, %1 ], [ %19, %15 ]
  %22 = zext i1 %21 to i32
  call void @llvm.lifetime.end.p0(i64 8, ptr %3) #11
  ret i32 %22
}

; Function Attrs: nounwind uwtable
define internal void @_selectOutputSchema(ptr noundef %0, ptr noundef %1) #0 {
  %3 = alloca ptr, align 8
  %4 = alloca ptr, align 8
  %5 = alloca ptr, align 8
  %6 = alloca i32, align 4
  %7 = alloca ptr, align 8
  store ptr %0, ptr %3, align 8
  store ptr %1, ptr %4, align 8
  call void @llvm.lifetime.start.p0(i64 8, ptr %5) #11
  %8 = load ptr, ptr %3, align 8
  %9 = getelementptr inbounds nuw %struct._archiveHandle, ptr %8, i32 0, i32 0
  %10 = getelementptr inbounds nuw %struct.Archive, ptr %9, i32 0, i32 12
  %11 = load ptr, ptr %10, align 8
  %12 = icmp ne ptr %11, null
  br i1 %12, label %13, label %14

13:                                               ; preds = %2
  store i32 1, ptr %6, align 4
  br label %87

14:                                               ; preds = %2
  %15 = load ptr, ptr %4, align 8
  %16 = icmp ne ptr %15, null
  br i1 %16, label %17, label %34

17:                                               ; preds = %14
  %18 = load ptr, ptr %4, align 8
  %19 = load i8, ptr %18, align 1
  %20 = sext i8 %19 to i32
  %21 = icmp eq i32 %20, 0
  br i1 %21, label %34, label %22

22:                                               ; preds = %17
  %23 = load ptr, ptr %3, align 8
  %24 = getelementptr inbounds nuw %struct._archiveHandle, ptr %23, i32 0, i32 65
  %25 = load ptr, ptr %24, align 8
  %26 = icmp ne ptr %25, null
  br i1 %26, label %27, label %35

27:                                               ; preds = %22
  %28 = load ptr, ptr %3, align 8
  %29 = getelementptr inbounds nuw %struct._archiveHandle, ptr %28, i32 0, i32 65
  %30 = load ptr, ptr %29, align 8
  %31 = load ptr, ptr %4, align 8
  %32 = call i32 @strcmp(ptr noundef %30, ptr noundef %31) #14
  %33 = icmp eq i32 %32, 0
  br i1 %33, label %34, label %35

34:                                               ; preds = %27, %17, %14
  store i32 1, ptr %6, align 4
  br label %87

35:                                               ; preds = %27, %22
  %36 = call ptr @createPQExpBuffer()
  store ptr %36, ptr %5, align 8
  %37 = load ptr, ptr %5, align 8
  %38 = load ptr, ptr %4, align 8
  %39 = call ptr @fmtId(ptr noundef %38)
  call void (ptr, ptr, ...) @appendPQExpBuffer(ptr noundef %37, ptr noundef @.str.264, ptr noundef %39)
  %40 = load ptr, ptr %4, align 8
  %41 = call i32 @strcmp(ptr noundef %40, ptr noundef @.str.122) #14
  %42 = icmp ne i32 %41, 0
  br i1 %42, label %43, label %45

43:                                               ; preds = %35
  %44 = load ptr, ptr %5, align 8
  call void @appendPQExpBufferStr(ptr noundef %44, ptr noundef @.str.265)
  br label %45

45:                                               ; preds = %43, %35
  %46 = load ptr, ptr %3, align 8
  %47 = call i32 @RestoringToDB(ptr noundef %46)
  %48 = icmp ne i32 %47, 0
  br i1 %48, label %49, label %72

49:                                               ; preds = %45
  call void @llvm.lifetime.start.p0(i64 8, ptr %7) #11
  %50 = load ptr, ptr %3, align 8
  %51 = getelementptr inbounds nuw %struct._archiveHandle, ptr %50, i32 0, i32 42
  %52 = load ptr, ptr %51, align 8
  %53 = load ptr, ptr %5, align 8
  %54 = getelementptr inbounds nuw %struct.PQExpBufferData, ptr %53, i32 0, i32 0
  %55 = load ptr, ptr %54, align 8
  %56 = call ptr @PQexec(ptr noundef %52, ptr noundef %55)
  store ptr %56, ptr %7, align 8
  %57 = load ptr, ptr %7, align 8
  %58 = icmp ne ptr %57, null
  br i1 %58, label %59, label %63

59:                                               ; preds = %49
  %60 = load ptr, ptr %7, align 8
  %61 = call i32 @PQresultStatus(ptr noundef %60)
  %62 = icmp ne i32 %61, 1
  br i1 %62, label %63, label %70

63:                                               ; preds = %59, %49
  %64 = load ptr, ptr %3, align 8
  %65 = load ptr, ptr %4, align 8
  %66 = load ptr, ptr %3, align 8
  %67 = getelementptr inbounds nuw %struct._archiveHandle, ptr %66, i32 0, i32 42
  %68 = load ptr, ptr %67, align 8
  %69 = call ptr @PQerrorMessage(ptr noundef %68)
  call void (ptr, ptr, ...) @warn_or_exit_horribly(ptr noundef %64, ptr noundef @.str.266, ptr noundef %65, ptr noundef %69)
  br label %70

70:                                               ; preds = %63, %59
  %71 = load ptr, ptr %7, align 8
  call void @PQclear(ptr noundef %71)
  call void @llvm.lifetime.end.p0(i64 8, ptr %7) #11
  br label %78

72:                                               ; preds = %45
  %73 = load ptr, ptr %3, align 8
  %74 = load ptr, ptr %5, align 8
  %75 = getelementptr inbounds nuw %struct.PQExpBufferData, ptr %74, i32 0, i32 0
  %76 = load ptr, ptr %75, align 8
  %77 = call i32 (ptr, ptr, ...) @ahprintf(ptr noundef %73, ptr noundef @.str.148, ptr noundef %76)
  br label %78

78:                                               ; preds = %72, %70
  %79 = load ptr, ptr %3, align 8
  %80 = getelementptr inbounds nuw %struct._archiveHandle, ptr %79, i32 0, i32 65
  %81 = load ptr, ptr %80, align 8
  call void @free(ptr noundef %81) #11
  %82 = load ptr, ptr %4, align 8
  %83 = call ptr @pg_strdup(ptr noundef %82)
  %84 = load ptr, ptr %3, align 8
  %85 = getelementptr inbounds nuw %struct._archiveHandle, ptr %84, i32 0, i32 65
  store ptr %83, ptr %85, align 8
  %86 = load ptr, ptr %5, align 8
  call void @destroyPQExpBuffer(ptr noundef %86)
  store i32 0, ptr %6, align 4
  br label %87

87:                                               ; preds = %78, %34, %13
  call void @llvm.lifetime.end.p0(i64 8, ptr %5) #11
  %88 = load i32, ptr %6, align 4
  switch i32 %88, label %90 [
    i32 0, label %89
    i32 1, label %89
  ]

89:                                               ; preds = %87, %87
  ret void

90:                                               ; preds = %87
  unreachable
}