; Function Attrs: nounwind uwtable
define internal fastcc void @_selectOutputSchema(ptr noundef %0, ptr noundef %1) unnamed_addr #0 {
  %3 = getelementptr inbounds nuw i8, ptr %0, i64 72
  %4 = load ptr, ptr %3, align 8
  %.not = icmp ne ptr %4, null
  %.not27 = icmp eq ptr %1, null
  %or.cond = or i1 %.not27, %.not
  br i1 %or.cond, label %41, label %5

5:                                                ; preds = %2
  %6 = load i8, ptr %1, align 1
  %7 = icmp eq i8 %6, 0
  br i1 %7, label %41, label %8

8:                                                ; preds = %5
  %9 = getelementptr inbounds nuw i8, ptr %0, i64 608
  %10 = load ptr, ptr %9, align 8
  %.not28 = icmp eq ptr %10, null
  br i1 %.not28, label %14, label %11

11:                                               ; preds = %8
  %12 = tail call i32 @strcmp(ptr noundef nonnull dereferenceable(1) %10, ptr noundef nonnull dereferenceable(1) %1) #24
  %13 = icmp eq i32 %12, 0
  br i1 %13, label %41, label %14

14:                                               ; preds = %11, %8
  %15 = tail call ptr @createPQExpBuffer() #22
  %16 = tail call ptr @fmtId(ptr noundef nonnull %1) #22
  tail call void (ptr, ptr, ...) @appendPQExpBuffer(ptr noundef %15, ptr noundef nonnull @.str.264, ptr noundef %16) #22
  %17 = tail call i32 @strcmp(ptr noundef nonnull dereferenceable(1) %1, ptr noundef nonnull dereferenceable(11) @.str.122) #24
  %.not29 = icmp eq i32 %17, 0
  br i1 %.not29, label %19, label %18

18:                                               ; preds = %14
  tail call void @appendPQExpBufferStr(ptr noundef %15, ptr noundef nonnull @.str.265) #22
  br label %19

19:                                               ; preds = %18, %14
  %20 = getelementptr inbounds nuw i8, ptr %0, i64 8
  %21 = load ptr, ptr %20, align 8
  %.not.i = icmp eq ptr %21, null
  br i1 %.not.i, label %RestoringToDB.exit.thread, label %22

22:                                               ; preds = %19
  %23 = getelementptr inbounds nuw i8, ptr %21, i64 264
  %24 = load i32, ptr %23, align 8
  %.not4.i = icmp eq i32 %24, 0
  br i1 %.not4.i, label %RestoringToDB.exit.thread, label %RestoringToDB.exit

RestoringToDB.exit:                               ; preds = %22
  %25 = getelementptr inbounds nuw i8, ptr %0, i64 440
  %26 = load ptr, ptr %25, align 8
  %.not34 = icmp eq ptr %26, null
  br i1 %.not34, label %RestoringToDB.exit.thread, label %27

27:                                               ; preds = %RestoringToDB.exit
  %28 = load ptr, ptr %15, align 8
  %29 = tail call ptr @PQexec(ptr noundef nonnull %26, ptr noundef %28) #22
  %.not31 = icmp eq ptr %29, null
  br i1 %.not31, label %32, label %30

30:                                               ; preds = %27
  %31 = tail call i32 @PQresultStatus(ptr noundef nonnull %29) #22
  %.not32 = icmp eq i32 %31, 1
  br i1 %.not32, label %35, label %32

32:                                               ; preds = %30, %27
  %33 = load ptr, ptr %25, align 8
  %34 = tail call ptr @PQerrorMessage(ptr noundef %33) #22
  tail call void (ptr, ptr, ...) @warn_or_exit_horribly(ptr noundef nonnull %0, ptr noundef nonnull @.str.266, ptr noundef nonnull %1, ptr noundef %34)
  br label %35

35:                                               ; preds = %32, %30
  tail call void @PQclear(ptr noundef %29) #22
  br label %38

RestoringToDB.exit.thread:                        ; preds = %19, %22, %RestoringToDB.exit
  %36 = load ptr, ptr %15, align 8
  %37 = tail call i32 (ptr, ptr, ...) @ahprintf(ptr noundef nonnull %0, ptr noundef nonnull @.str.148, ptr noundef %36)
  br label %38

38:                                               ; preds = %RestoringToDB.exit.thread, %35
  %39 = load ptr, ptr %9, align 8
  tail call void @free(ptr noundef %39) #22
  %40 = tail call ptr @pg_strdup(ptr noundef nonnull %1) #22
  store ptr %40, ptr %9, align 8
  tail call void @destroyPQExpBuffer(ptr noundef nonnull %15) #22
  br label %41

41:                                               ; preds = %5, %11, %2, %38
  ret void
}